target datalayout = "e-m:e-p270:32:32-p271:32:32-p272:64:64-i64:64-i128:128-f80:128-n8:16:32:64-S128"
target triple = "x86_64-pc-linux-gnu"

%struct._dcerpc_info = type { ptr, i32, i64, i8, i8, i8, i32, i32, i32, i32, i32, i32, i32, i32, ptr, ptr, ptr, ptr, %struct.anon }
%struct.anon = type { i8, ptr, ptr, ptr, i8 }
%struct._dcerpc_call_value = type { %struct._e_guid_t, i16, %struct._e_guid_t, i16, i32, %struct.nstime_t, i32, i32, ptr, ptr, ptr, i32 }
%struct._e_guid_t = type { i32, i16, i16, [8 x i8] }
%struct.nstime_t = type { i64, i32 }

@.str.14 = private unnamed_addr constant [7 x i8] c"Domain\00", align 1
@hf_nt_domain_sid = internal global i32 0, align 4
@hf_nt_count = internal global i32 0, align 4

; Function Attrs: null_pointer_is_valid sspstrong uwtable
define hidden i32 @dissect_ndr_nt_SID(ptr noundef %0, i32 noundef %1, ptr noundef %2, ptr noundef %3, ptr noundef %4, ptr noundef %5) #0 {
  %7 = alloca i32, align 4
  %8 = alloca ptr, align 8
  %9 = alloca i32, align 4
  %10 = alloca ptr, align 8
  %11 = alloca ptr, align 8
  %12 = alloca ptr, align 8
  %13 = alloca ptr, align 8
  %14 = alloca ptr, align 8
  %15 = alloca ptr, align 8
  %16 = alloca ptr, align 8
  %17 = alloca i32, align 4
  store ptr %0, ptr %8, align 8
  store i32 %1, ptr %9, align 4
  store ptr %2, ptr %10, align 8
  store ptr %3, ptr %11, align 8
  store ptr %4, ptr %12, align 8
  store ptr %5, ptr %13, align 8
  call void @llvm.lifetime.start.p0(i64 8, ptr %14) #13
  %18 = load ptr, ptr %12, align 8
  %19 = getelementptr inbounds nuw %struct._dcerpc_info, ptr %18, i32 0, i32 14
  %20 = load ptr, ptr %19, align 8
  store ptr %20, ptr %14, align 8
  call void @llvm.lifetime.start.p0(i64 8, ptr %15) #13
  store ptr null, ptr %15, align 8
  call void @llvm.lifetime.start.p0(i64 8, ptr %16) #13
  %21 = load ptr, ptr %12, align 8
  %22 = getelementptr inbounds nuw %struct._dcerpc_info, ptr %21, i32 0, i32 13
  %23 = load i32, ptr %22, align 8
  %24 = icmp sgt i32 %23, 0
  br i1 %24, label %25, label %30

25:                                               ; preds = %6
  %26 = load ptr, ptr %12, align 8
  %27 = getelementptr inbounds nuw %struct._dcerpc_info, ptr %26, i32 0, i32 13
  %28 = load i32, ptr %27, align 8
  %29 = call ptr @proto_registrar_get_name(i32 noundef %28)
  store ptr %29, ptr %16, align 8
  br label %31

30:                                               ; preds = %6
  store ptr @.str.14, ptr %16, align 8
  br label %31

31:                                               ; preds = %30, %25
  %32 = load ptr, ptr %12, align 8
  %33 = getelementptr inbounds nuw %struct._dcerpc_info, ptr %32, i32 0, i32 4
  %34 = load i8, ptr %33, align 1, !range !6, !noundef !7
  %35 = trunc i8 %34 to i1
  br i1 %35, label %36, label %38

36:                                               ; preds = %31
  %37 = load i32, ptr %9, align 4
  store i32 %37, ptr %7, align 4
  store i32 1, ptr %17, align 4
  br label %63

38:                                               ; preds = %31
  %39 = load ptr, ptr %8, align 8
  %40 = load i32, ptr %9, align 4
  %41 = load ptr, ptr %10, align 8
  %42 = load ptr, ptr %11, align 8
  %43 = load ptr, ptr %12, align 8
  %44 = load ptr, ptr %13, align 8
  %45 = load i32, ptr @hf_nt_count, align 4
  %46 = call i32 @dissect_ndr_uint3264(ptr noundef %39, i32 noundef %40, ptr noundef %41, ptr noundef %42, ptr noundef %43, ptr noundef %44, i32 noundef %45, ptr noundef null)
  store i32 %46, ptr %9, align 4
  %47 = load ptr, ptr %8, align 8
  %48 = load i32, ptr %9, align 4
  %49 = load ptr, ptr %11, align 8
  %50 = load ptr, ptr %16, align 8
  %51 = load i32, ptr @hf_nt_domain_sid, align 4
  %52 = call i32 @dissect_nt_sid(ptr noundef %47, i32 noundef %48, ptr noundef %49, ptr noundef %50, ptr noundef %15, i32 noundef %51)
  store i32 %52, ptr %9, align 4
  %53 = load ptr, ptr %14, align 8
  %54 = icmp ne ptr %53, null
  br i1 %54, label %55, label %61

55:                                               ; preds = %38
  %56 = call ptr @wmem_file_scope()
  %57 = load ptr, ptr %15, align 8
  %58 = call noalias ptr @wmem_strdup(ptr noundef %56, ptr noundef %57)
  %59 = load ptr, ptr %14, align 8
  %60 = getelementptr inbounds nuw %struct._dcerpc_call_value, ptr %59, i32 0, i32 9
  store ptr %58, ptr %60, align 8
  br label %61

61:                                               ; preds = %55, %38
  %62 = load i32, ptr %9, align 4
  store i32 %62, ptr %7, align 4
  store i32 1, ptr %17, align 4
  br label %63

63:                                               ; preds = %61, %36
  call void @llvm.lifetime.end.p0(i64 8, ptr %16) #13
  call void @llvm.lifetime.end.p0(i64 8, ptr %15) #13
  call void @llvm.lifetime.end.p0(i64 8, ptr %14) #13
  %64 = load i32, ptr %7, align 4
  ret i32 %64
}