; Function Attrs: null_pointer_is_valid sspstrong uwtable
define hidden i32 @dissect_ndr_nt_SID(ptr noundef %0, i32 noundef %1, ptr noundef %2, ptr noundef %3, ptr noundef %4, ptr noundef %5) local_unnamed_addr #0 {
  %7 = alloca ptr, align 8
  %8 = getelementptr inbounds nuw i8, ptr %4, i64 64
  %9 = load ptr, ptr %8, align 8
  call void @llvm.lifetime.start.p0(i64 8, ptr nonnull %7) #9
  store ptr null, ptr %7, align 8
  %10 = getelementptr inbounds nuw i8, ptr %4, i64 56
  %11 = load i32, ptr %10, align 8
  %12 = icmp sgt i32 %11, 0
  br i1 %12, label %13, label %15

13:                                               ; preds = %6
  %14 = tail call ptr @proto_registrar_get_name(i32 noundef %11)
  br label %15

15:                                               ; preds = %6, %13
  %.0 = phi ptr [ %14, %13 ], [ @.str.14, %6 ]
  %16 = getelementptr inbounds nuw i8, ptr %4, i64 25
  %17 = load i8, ptr %16, align 1, !range !6, !noundef !7
  %18 = trunc nuw i8 %17 to i1
  br i1 %18, label %29, label %19

19:                                               ; preds = %15
  %20 = load i32, ptr @hf_nt_count, align 4
  %21 = tail call i32 @dissect_ndr_uint3264(ptr noundef %0, i32 noundef %1, ptr noundef %2, ptr noundef %3, ptr noundef %4, ptr noundef %5, i32 noundef %20, ptr noundef null)
  %22 = load i32, ptr @hf_nt_domain_sid, align 4
  %23 = call i32 @dissect_nt_sid(ptr noundef %0, i32 noundef %21, ptr noundef %3, ptr noundef %.0, ptr noundef nonnull %7, i32 noundef %22)
  %.not = icmp eq ptr %9, null
  br i1 %.not, label %29, label %24

24:                                               ; preds = %19
  %25 = call ptr @wmem_file_scope()
  %26 = load ptr, ptr %7, align 8
  %27 = call noalias ptr @wmem_strdup(ptr noundef %25, ptr noundef %26)
  %28 = getelementptr inbounds nuw i8, ptr %9, i64 80
  store ptr %27, ptr %28, align 8
  br label %29

29:                                               ; preds = %19, %24, %15
  %.018 = phi i32 [ %1, %15 ], [ %23, %24 ], [ %23, %19 ]
  call void @llvm.lifetime.end.p0(i64 8, ptr nonnull %7) #9
  ret i32 %.018
}